; Function Attrs: mustprogress uwtable
define hidden noundef zeroext i1 @_ZN18OpenImageIO_v2_6_09FitsInput5closeEv(ptr noundef nonnull align 8 dereferenceable(480) %this) unnamed_addr #6 align 2 {
entry:
  %m_fd = getelementptr inbounds i8, ptr %this, i64 184
  %0 = load ptr, ptr %m_fd, align 8
  %tobool.not = icmp eq ptr %0, null
  br i1 %tobool.not, label %if.end, label %if.then

if.then:                                          ; preds = %entry
  %call = tail call i32 @fclose(ptr noundef nonnull %0)
  br label %if.end

if.end:                                           ; preds = %if.then, %entry
  tail call void @_ZN18OpenImageIO_v2_6_09FitsInput4initEv(ptr noundef nonnull align 8 dereferenceable(480) %this)
  ret i1 true
}